; ModuleID = '53/1040.c'
source_filename = "53/1040.c"
target datalayout = "e-m:e-p270:32:32-p271:32:32-p272:64:64-i64:64-f80:128-n8:16:32:64-S128"
target triple = "x86_64-pc-linux-gnu"

@.str = private unnamed_addr constant [3 x i8] c"%d\00", align 1
@.str.1 = private unnamed_addr constant [4 x i8] c",%d\00", align 1

; Function Attrs: noinline nounwind uwtable
define dso_local i32 @main() #0 {
  %1 = alloca i32, align 4
  %2 = alloca i32, align 4
  %3 = alloca i32, align 4
  %4 = alloca i32, align 4
  %5 = alloca [300 x i32], align 16
  %6 = alloca i32, align 4
  store i32 0, i32* %1, align 4
  %7 = call i32 (i8*, ...) @__isoc99_scanf(i8* getelementptr inbounds ([3 x i8], [3 x i8]* @.str, i64 0, i64 0), i32* %2)
  store i32 0, i32* %3, align 4
  br label %8

8:                                                ; preds = %56, %0
  %9 = load i32, i32* %3, align 4
  %10 = load i32, i32* %2, align 4
  %11 = icmp slt i32 %9, %10
  br i1 %11, label %12, label %59

12:                                               ; preds = %8
  %13 = load i32, i32* %3, align 4
  %14 = sext i32 %13 to i64
  %15 = getelementptr inbounds [300 x i32], [300 x i32]* %5, i64 0, i64 %14
  %16 = call i32 (i8*, ...) @__isoc99_scanf(i8* getelementptr inbounds ([3 x i8], [3 x i8]* @.str, i64 0, i64 0), i32* %15)
  %17 = load i32, i32* %3, align 4
  %18 = icmp eq i32 %17, 0
  br i1 %18, label %19, label %25

19:                                               ; preds = %12
  %20 = load i32, i32* %3, align 4
  %21 = sext i32 %20 to i64
  %22 = getelementptr inbounds [300 x i32], [300 x i32]* %5, i64 0, i64 %21
  %23 = load i32, i32* %22, align 4
  %24 = call i32 (i8*, ...) @printf(i8* getelementptr inbounds ([3 x i8], [3 x i8]* @.str, i64 0, i64 0), i32 %23)
  br label %55

25:                                               ; preds = %12
  store i32 0, i32* %4, align 4
  store i32 0, i32* %6, align 4
  br label %26

26:                                               ; preds = %42, %25
  %27 = load i32, i32* %6, align 4
  %28 = load i32, i32* %3, align 4
  %29 = icmp slt i32 %27, %28
  br i1 %29, label %30, label %45

30:                                               ; preds = %26
  %31 = load i32, i32* %3, align 4
  %32 = sext i32 %31 to i64
  %33 = getelementptr inbounds [300 x i32], [300 x i32]* %5, i64 0, i64 %32
  %34 = load i32, i32* %33, align 4
  %35 = load i32, i32* %6, align 4
  %36 = sext i32 %35 to i64
  %37 = getelementptr inbounds [300 x i32], [300 x i32]* %5, i64 0, i64 %36
  %38 = load i32, i32* %37, align 4
  %39 = icmp eq i32 %34, %38
  br i1 %39, label %40, label %41

40:                                               ; preds = %30
  store i32 1, i32* %4, align 4
  br label %41

41:                                               ; preds = %40, %30
  br label %42

42:                                               ; preds = %41
  %43 = load i32, i32* %6, align 4
  %44 = add nsw i32 %43, 1
  store i32 %44, i32* %6, align 4
  br label %26

45:                                               ; preds = %26
  %46 = load i32, i32* %4, align 4
  %47 = icmp eq i32 %46, 0
  br i1 %47, label %48, label %54

48:                                               ; preds = %45
  %49 = load i32, i32* %3, align 4
  %50 = sext i32 %49 to i64
  %51 = getelementptr inbounds [300 x i32], [300 x i32]* %5, i64 0, i64 %50
  %52 = load i32, i32* %51, align 4
  %53 = call i32 (i8*, ...) @printf(i8* getelementptr inbounds ([4 x i8], [4 x i8]* @.str.1, i64 0, i64 0), i32 %52)
  br label %54

54:                                               ; preds = %48, %45
  br label %55

55:                                               ; preds = %54, %19
  br label %56

56:                                               ; preds = %55
  %57 = load i32, i32* %3, align 4
  %58 = add nsw i32 %57, 1
  store i32 %58, i32* %3, align 4
  br label %8

59:                                               ; preds = %8
  ret i32 0
}

declare dso_local i32 @__isoc99_scanf(i8*, ...) #1

declare dso_local i32 @printf(i8*, ...) #1


!llvm.module.flags = !{!0}
!llvm.ident = !{!1}

!0 = !{i32 1, !"wchar_size", i32 4}
!1 = !{!"clang version 10.0.0-4ubuntu1 "}
